target datalayout = "e-m:e-p270:32:32-p271:32:32-p272:64:64-i64:64-i128:128-f80:128-n8:16:32:64-S128"
target triple = "x86_64-pc-linux-gnu"

%struct.addrinfo = type { i32, i32, i32, i32, i32, ptr, ptr, ptr }
%struct.fast_fallback_getaddrinfo_entry = type { i32, i32, i32, %struct.addrinfo, ptr, ptr, i32, i64, i32 }

; Function Attrs: nounwind sspstrong uwtable
define void @free_fast_fallback_getaddrinfo_entry(ptr noundef %0) #0 {
  %2 = alloca ptr, align 8
  store ptr %0, ptr %2, align 8, !tbaa !157
  %3 = load ptr, ptr %2, align 8, !tbaa !157
  %4 = load ptr, ptr %3, align 8, !tbaa !159
  %5 = getelementptr inbounds nuw %struct.fast_fallback_getaddrinfo_entry, ptr %4, i32 0, i32 4
  %6 = load ptr, ptr %5, align 8, !tbaa !161
  %7 = icmp ne ptr %6, null
  br i1 %7, label %8, label %16

8:                                                ; preds = %1
  %9 = load ptr, ptr %2, align 8, !tbaa !157
  %10 = load ptr, ptr %9, align 8, !tbaa !159
  %11 = getelementptr inbounds nuw %struct.fast_fallback_getaddrinfo_entry, ptr %10, i32 0, i32 4
  %12 = load ptr, ptr %11, align 8, !tbaa !161
  call void @freeaddrinfo(ptr noundef %12) #24
  %13 = load ptr, ptr %2, align 8, !tbaa !157
  %14 = load ptr, ptr %13, align 8, !tbaa !159
  %15 = getelementptr inbounds nuw %struct.fast_fallback_getaddrinfo_entry, ptr %14, i32 0, i32 4
  store ptr null, ptr %15, align 8, !tbaa !161
  br label %16

16:                                               ; preds = %8, %1
  %17 = load ptr, ptr %2, align 8, !tbaa !157
  store ptr null, ptr %17, align 8, !tbaa !159
  ret void
}