; Function Attrs: nounwind sspstrong uwtable
define void @free_fast_fallback_getaddrinfo_entry(ptr noundef captures(none) %0) local_unnamed_addr #0 {
  %2 = load ptr, ptr %0, align 8, !tbaa !150
  %3 = getelementptr inbounds nuw i8, ptr %2, i64 64
  %4 = load ptr, ptr %3, align 8, !tbaa !152
  %.not = icmp eq ptr %4, null
  br i1 %.not, label %8, label %5

5:                                                ; preds = %1
  tail call void @freeaddrinfo(ptr noundef nonnull %4) #21
  %6 = load ptr, ptr %0, align 8, !tbaa !150
  %7 = getelementptr inbounds nuw i8, ptr %6, i64 64
  store ptr null, ptr %7, align 8, !tbaa !152
  br label %8

8:                                                ; preds = %5, %1
  store ptr null, ptr %0, align 8, !tbaa !150
  ret void
}